target datalayout = "e-m:e-p270:32:32-p271:32:32-p272:64:64-i64:64-i128:128-f80:128-n8:16:32:64-S128"
target triple = "x86_64-pc-linux-gnu"

%"struct.Yosys::RTLIL::Const" = type { i16, i8, %union.anon }
%union.anon = type { %"class.std::__cxx11::basic_string" }
%"class.std::__cxx11::basic_string" = type { %"struct.std::__cxx11::basic_string<char>::_Alloc_hider", i64, %union.anon.3 }
%"struct.std::__cxx11::basic_string<char>::_Alloc_hider" = type { ptr }
%union.anon.3 = type { i64, [8 x i8] }
%"struct.std::_Vector_base" = type { %"struct.std::_Vector_base<Yosys::RTLIL::State, std::allocator<Yosys::RTLIL::State>>::_Vector_impl" }
%"struct.std::_Vector_base<Yosys::RTLIL::State, std::allocator<Yosys::RTLIL::State>>::_Vector_impl" = type { %"struct.std::_Vector_base<Yosys::RTLIL::State, std::allocator<Yosys::RTLIL::State>>::_Vector_impl_data" }
%"struct.std::_Vector_base<Yosys::RTLIL::State, std::allocator<Yosys::RTLIL::State>>::_Vector_impl_data" = type { ptr, ptr, ptr }
%"class.Yosys::RTLIL::Const::const_iterator" = type { ptr, i64 }

; Function Attrs: mustprogress nounwind uwtable
define linkonce_odr void @_ZN5Yosys5RTLIL5Const14const_iteratorC2ERKS1_m(ptr noundef nonnull align 8 dereferenceable(16) %0, ptr noundef nonnull align 8 dereferenceable(40) %1, i64 noundef %2) unnamed_addr #6 comdat align 2 {
  %4 = alloca ptr, align 8
  %5 = alloca ptr, align 8
  %6 = alloca i64, align 8
  store ptr %0, ptr %4, align 8, !tbaa !62
  store ptr %1, ptr %5, align 8, !tbaa !6
  store i64 %2, ptr %6, align 8, !tbaa !24
  %7 = load ptr, ptr %4, align 8
  %8 = getelementptr inbounds nuw %"class.Yosys::RTLIL::Const::const_iterator", ptr %7, i32 0, i32 0
  %9 = load ptr, ptr %5, align 8, !tbaa !6
  store ptr %9, ptr %8, align 8, !tbaa !6
  %10 = getelementptr inbounds nuw %"class.Yosys::RTLIL::Const::const_iterator", ptr %7, i32 0, i32 1
  %11 = load i64, ptr %6, align 8, !tbaa !24
  store i64 %11, ptr %10, align 8, !tbaa !66
  ret void
}

; Function Attrs: mustprogress nounwind uwtable
define linkonce_odr noundef nonnull align 1 dereferenceable(1) ptr @_ZNSt6vectorIN5Yosys5RTLIL5StateESaIS2_EEixEm(ptr noundef nonnull align 8 dereferenceable(24) %0, i64 noundef %1) #6 comdat align 2 {
  %3 = alloca ptr, align 8
  %4 = alloca i64, align 8
  store ptr %0, ptr %3, align 8, !tbaa !22
  store i64 %1, ptr %4, align 8, !tbaa !24
  %5 = load ptr, ptr %3, align 8
  %6 = getelementptr inbounds nuw %"struct.std::_Vector_base", ptr %5, i32 0, i32 0
  %7 = getelementptr inbounds nuw %"struct.std::_Vector_base<Yosys::RTLIL::State, std::allocator<Yosys::RTLIL::State>>::_Vector_impl_data", ptr %6, i32 0, i32 0
  %8 = load ptr, ptr %7, align 8, !tbaa !26
  %9 = load i64, ptr %4, align 8, !tbaa !24
  %10 = getelementptr inbounds nuw i8, ptr %8, i64 %9
  ret ptr %10
}

; Function Attrs: mustprogress uwtable
define linkonce_odr noundef zeroext i8 @_ZNK5Yosys5RTLIL5ConstixEm(ptr noundef nonnull align 8 dereferenceable(40) %0, i64 noundef %1) #4 comdat align 2 {
  %3 = alloca ptr, align 8
  %4 = alloca i64, align 8
  %5 = alloca %"class.Yosys::RTLIL::Const::const_iterator", align 8
  store ptr %0, ptr %3, align 8, !tbaa !6
  store i64 %1, ptr %4, align 8, !tbaa !24
  %6 = load ptr, ptr %3, align 8
  call void @llvm.lifetime.start.p0(i64 16, ptr %5) #3
  %7 = load i64, ptr %4, align 8, !tbaa !24
  call void @_ZN5Yosys5RTLIL5Const14const_iteratorC2ERKS1_m(ptr noundef nonnull align 8 dereferenceable(16) %5, ptr noundef nonnull align 8 dereferenceable(40) %6, i64 noundef %7)
  %8 = call noundef zeroext i8 @_ZNK5Yosys5RTLIL5Const14const_iteratordeEv(ptr noundef nonnull align 8 dereferenceable(16) %5)
  call void @llvm.lifetime.end.p0(i64 16, ptr %5) #3
  ret i8 %8
}

; Function Attrs: mustprogress uwtable
define void @_ZN5Yosys5RTLIL9const_muxERKNS0_5ConstES3_S3_(ptr dead_on_unwind noalias writable sret(%"struct.Yosys::RTLIL::Const") align 8 %0, ptr noundef nonnull align 8 dereferenceable(40) %1, ptr noundef nonnull align 8 dereferenceable(40) %2, ptr noundef nonnull align 8 dereferenceable(40) %3) #4 personality ptr @__gxx_personality_v0 {
  %5 = alloca ptr, align 8
  %6 = alloca ptr, align 8
  %7 = alloca ptr, align 8
  %8 = alloca ptr, align 8
  %9 = alloca i1, align 1
  %10 = alloca i32, align 4
  %11 = alloca ptr, align 8
  %12 = alloca i32, align 4
  store ptr %0, ptr %5, align 8
  store ptr %1, ptr %6, align 8, !tbaa !6
  store ptr %2, ptr %7, align 8, !tbaa !6
  store ptr %3, ptr %8, align 8, !tbaa !6
  br label %13

13:                                               ; preds = %4
  br label %14

14:                                               ; preds = %13
  %15 = load ptr, ptr %8, align 8, !tbaa !6
  %16 = call noundef zeroext i8 @_ZNK5Yosys5RTLIL5ConstixEm(ptr noundef nonnull align 8 dereferenceable(40) %15, i64 noundef 0)
  %17 = zext i8 %16 to i32
  %18 = icmp eq i32 %17, 0
  br i1 %18, label %19, label %21

19:                                               ; preds = %14
  %20 = load ptr, ptr %6, align 8, !tbaa !6
  call void @_ZN5Yosys5RTLIL5ConstC1ERKS1_(ptr noundef nonnull align 8 dereferenceable(40) %0, ptr noundef nonnull align 8 dereferenceable(40) %20)
  br label %68

21:                                               ; preds = %14
  %22 = load ptr, ptr %8, align 8, !tbaa !6
  %23 = call noundef zeroext i8 @_ZNK5Yosys5RTLIL5ConstixEm(ptr noundef nonnull align 8 dereferenceable(40) %22, i64 noundef 0)
  %24 = zext i8 %23 to i32
  %25 = icmp eq i32 %24, 1
  br i1 %25, label %26, label %28

26:                                               ; preds = %21
  %27 = load ptr, ptr %7, align 8, !tbaa !6
  call void @_ZN5Yosys5RTLIL5ConstC1ERKS1_(ptr noundef nonnull align 8 dereferenceable(40) %0, ptr noundef nonnull align 8 dereferenceable(40) %27)
  br label %68

28:                                               ; preds = %21
  br label %29

29:                                               ; preds = %28
  store i1 false, ptr %9, align 1
  %30 = load ptr, ptr %6, align 8, !tbaa !6
  call void @_ZN5Yosys5RTLIL5ConstC1ERKS1_(ptr noundef nonnull align 8 dereferenceable(40) %0, ptr noundef nonnull align 8 dereferenceable(40) %30)
  call void @llvm.lifetime.start.p0(i64 4, ptr %10) #3
  store i32 0, ptr %10, align 4, !tbaa !13
  br label %31

31:                                               ; preds = %61, %29
  %32 = load i32, ptr %10, align 4, !tbaa !13
  %33 = invoke noundef i32 @_ZNK5Yosys5RTLIL5Const4sizeEv(ptr noundef nonnull align 8 dereferenceable(40) %0)
          to label %34 unwind label %37

34:                                               ; preds = %31
  %35 = icmp slt i32 %32, %33
  br i1 %35, label %41, label %36

36:                                               ; preds = %34
  call void @llvm.lifetime.end.p0(i64 4, ptr %10) #3
  br label %64

37:                                               ; preds = %54, %45, %41, %31
  %38 = landingpad { ptr, i32 }
          cleanup
  %39 = extractvalue { ptr, i32 } %38, 0
  store ptr %39, ptr %11, align 8
  %40 = extractvalue { ptr, i32 } %38, 1
  store i32 %40, ptr %12, align 4
  call void @llvm.lifetime.end.p0(i64 4, ptr %10) #3
  call void @_ZN5Yosys5RTLIL5ConstD1Ev(ptr noundef nonnull align 8 dereferenceable(40) %0) #3
  br label %69

41:                                               ; preds = %34
  %42 = load i32, ptr %10, align 4, !tbaa !13
  %43 = sext i32 %42 to i64
  %44 = invoke noundef zeroext i8 @_ZNK5Yosys5RTLIL5ConstixEm(ptr noundef nonnull align 8 dereferenceable(40) %0, i64 noundef %43)
          to label %45 unwind label %37

45:                                               ; preds = %41
  %46 = zext i8 %44 to i32
  %47 = load ptr, ptr %7, align 8, !tbaa !6
  %48 = load i32, ptr %10, align 4, !tbaa !13
  %49 = sext i32 %48 to i64
  %50 = invoke noundef zeroext i8 @_ZNK5Yosys5RTLIL5ConstixEm(ptr noundef nonnull align 8 dereferenceable(40) %47, i64 noundef %49)
          to label %51 unwind label %37

51:                                               ; preds = %45
  %52 = zext i8 %50 to i32
  %53 = icmp ne i32 %46, %52
  br i1 %53, label %54, label %60

54:                                               ; preds = %51
  %55 = invoke noundef nonnull align 8 dereferenceable(24) ptr @_ZN5Yosys5RTLIL5Const4bitsEv(ptr noundef nonnull align 8 dereferenceable(40) %0)
          to label %56 unwind label %37

56:                                               ; preds = %54
  %57 = load i32, ptr %10, align 4, !tbaa !13
  %58 = sext i32 %57 to i64
  %59 = call noundef nonnull align 1 dereferenceable(1) ptr @_ZNSt6vectorIN5Yosys5RTLIL5StateESaIS2_EEixEm(ptr noundef nonnull align 8 dereferenceable(24) %55, i64 noundef %58) #3
  store i8 2, ptr %59, align 1, !tbaa !17
  br label %60

60:                                               ; preds = %56, %51
  br label %61

61:                                               ; preds = %60
  %62 = load i32, ptr %10, align 4, !tbaa !13
  %63 = add nsw i32 %62, 1
  store i32 %63, ptr %10, align 4, !tbaa !13
  br label %31, !llvm.loop !60

64:                                               ; preds = %36
  store i1 true, ptr %9, align 1
  %65 = load i1, ptr %9, align 1
  br i1 %65, label %67, label %66

66:                                               ; preds = %64
  call void @_ZN5Yosys5RTLIL5ConstD1Ev(ptr noundef nonnull align 8 dereferenceable(40) %0) #3
  br label %67

67:                                               ; preds = %66, %64
  br label %68

68:                                               ; preds = %67, %26, %19
  ret void

69:                                               ; preds = %37
  %70 = load ptr, ptr %11, align 8
  %71 = load i32, ptr %12, align 4
  %72 = insertvalue { ptr, i32 } poison, ptr %70, 0
  %73 = insertvalue { ptr, i32 } %72, i32 %71, 1
  resume { ptr, i32 } %73
}