; Function Attrs: mustprogress uwtable
define void @_ZN5Yosys5RTLIL9const_muxERKNS0_5ConstES3_S3_(ptr dead_on_unwind noalias writable sret(%"struct.Yosys::RTLIL::Const") align 8 %0, ptr noundef nonnull align 8 dereferenceable(40) %1, ptr noundef nonnull align 8 dereferenceable(40) %2, ptr noundef nonnull align 8 dereferenceable(40) %3) local_unnamed_addr #3 personality ptr @__gxx_personality_v0 {
  %5 = alloca %"class.Yosys::RTLIL::Const::const_iterator", align 8
  %6 = alloca %"class.Yosys::RTLIL::Const::const_iterator", align 8
  %7 = alloca %"class.Yosys::RTLIL::Const::const_iterator", align 8
  %8 = alloca %"class.Yosys::RTLIL::Const::const_iterator", align 8
  call void @llvm.lifetime.start.p0(i64 16, ptr nonnull %8) #19
  store ptr %3, ptr %8, align 8, !tbaa !20
  %9 = getelementptr inbounds nuw i8, ptr %8, i64 8
  store i64 0, ptr %9, align 8, !tbaa !22
  %10 = call noundef zeroext i8 @_ZNK5Yosys5RTLIL5Const14const_iteratordeEv(ptr noundef nonnull align 8 dereferenceable(16) %8)
  call void @llvm.lifetime.end.p0(i64 16, ptr nonnull %8) #19
  %11 = icmp eq i8 %10, 0
  br i1 %11, label %.loopexit.sink.split, label %12

12:                                               ; preds = %4
  call void @llvm.lifetime.start.p0(i64 16, ptr nonnull %7) #19
  store ptr %3, ptr %7, align 8, !tbaa !20
  %13 = getelementptr inbounds nuw i8, ptr %7, i64 8
  store i64 0, ptr %13, align 8, !tbaa !22
  %14 = call noundef zeroext i8 @_ZNK5Yosys5RTLIL5Const14const_iteratordeEv(ptr noundef nonnull align 8 dereferenceable(16) %7)
  call void @llvm.lifetime.end.p0(i64 16, ptr nonnull %7) #19
  %15 = icmp eq i8 %14, 1
  br i1 %15, label %.loopexit.sink.split, label %16

16:                                               ; preds = %12
  call void @_ZN5Yosys5RTLIL5ConstC1ERKS1_(ptr noundef nonnull align 8 dereferenceable(40) %0, ptr noundef nonnull align 8 dereferenceable(40) %1)
  %17 = getelementptr inbounds nuw i8, ptr %6, i64 8
  %18 = getelementptr inbounds nuw i8, ptr %5, i64 8
  br label %19

19:                                               ; preds = %36, %16
  %indvars.iv = phi i64 [ %indvars.iv.next, %36 ], [ 0, %16 ]
  %20 = invoke noundef i32 @_ZNK5Yosys5RTLIL5Const4sizeEv(ptr noundef nonnull align 8 dereferenceable(40) %0)
          to label %21 unwind label %24

21:                                               ; preds = %19
  %22 = sext i32 %20 to i64
  %23 = icmp slt i64 %indvars.iv, %22
  br i1 %23, label %26, label %.loopexit

24:                                               ; preds = %28, %26, %31, %19
  %25 = landingpad { ptr, i32 }
          cleanup
  call void @_ZN5Yosys5RTLIL5ConstD1Ev(ptr noundef nonnull align 8 dereferenceable(40) %0) #19
  resume { ptr, i32 } %25

26:                                               ; preds = %21
  call void @llvm.lifetime.start.p0(i64 16, ptr nonnull %6) #19
  store ptr %0, ptr %6, align 8, !tbaa !20
  store i64 %indvars.iv, ptr %17, align 8, !tbaa !22
  %27 = invoke noundef zeroext i8 @_ZNK5Yosys5RTLIL5Const14const_iteratordeEv(ptr noundef nonnull align 8 dereferenceable(16) %6)
          to label %28 unwind label %24

28:                                               ; preds = %26
  call void @llvm.lifetime.end.p0(i64 16, ptr nonnull %6) #19
  call void @llvm.lifetime.start.p0(i64 16, ptr nonnull %5) #19
  store ptr %2, ptr %5, align 8, !tbaa !20
  store i64 %indvars.iv, ptr %18, align 8, !tbaa !22
  %29 = invoke noundef zeroext i8 @_ZNK5Yosys5RTLIL5Const14const_iteratordeEv(ptr noundef nonnull align 8 dereferenceable(16) %5)
          to label %30 unwind label %24

30:                                               ; preds = %28
  call void @llvm.lifetime.end.p0(i64 16, ptr nonnull %5) #19
  %.not = icmp eq i8 %27, %29
  br i1 %.not, label %36, label %31

31:                                               ; preds = %30
  %32 = invoke noundef nonnull align 8 dereferenceable(24) ptr @_ZN5Yosys5RTLIL5Const4bitsEv(ptr noundef nonnull align 8 dereferenceable(40) %0)
          to label %33 unwind label %24

33:                                               ; preds = %31
  %34 = load ptr, ptr %32, align 8, !tbaa !6
  %35 = getelementptr inbounds nuw i8, ptr %34, i64 %indvars.iv
  store i8 2, ptr %35, align 1, !tbaa !11
  br label %36

36:                                               ; preds = %30, %33
  %indvars.iv.next = add nuw nsw i64 %indvars.iv, 1
  br label %19, !llvm.loop !132

.loopexit.sink.split:                             ; preds = %12, %4
  %.sink = phi ptr [ %1, %4 ], [ %2, %12 ]
  call void @_ZN5Yosys5RTLIL5ConstC1ERKS1_(ptr noundef nonnull align 8 dereferenceable(40) %0, ptr noundef nonnull align 8 dereferenceable(40) %.sink)
  br label %.loopexit

.loopexit:                                        ; preds = %21, %.loopexit.sink.split
  ret void
}